; Function Attrs: nounwind uwtable
define hidden void @_glfwSetWindowPosX11(ptr noundef readonly captures(none) %0, i32 noundef %1, i32 noundef %2) local_unnamed_addr #0 {
  %4 = alloca %struct.XWindowAttributes, align 8
  %5 = alloca i64, align 8
  call void @llvm.lifetime.start.p0(i64 136, ptr nonnull %4) #17
  %6 = load ptr, ptr getelementptr inbounds nuw (i8, ptr @_glfw, i64 141664), align 8, !tbaa !175
  %7 = load ptr, ptr getelementptr inbounds nuw (i8, ptr @_glfw, i64 137840), align 8, !tbaa !93
  %8 = getelementptr inbounds nuw i8, ptr %0, i64 1248
  %9 = load i64, ptr %8, align 8, !tbaa !140
  %10 = call i32 %6(ptr noundef %7, i64 noundef %9, ptr noundef nonnull %4) #17
  %11 = getelementptr inbounds nuw i8, ptr %4, i64 92
  %12 = load i32, ptr %11, align 4, !tbaa !258
  %.not = icmp eq i32 %12, 2
  call void @llvm.lifetime.end.p0(i64 136, ptr nonnull %4) #17
  br i1 %.not, label %31, label %13

13:                                               ; preds = %3
  call void @llvm.lifetime.start.p0(i64 8, ptr nonnull %5) #17
  %14 = load ptr, ptr getelementptr inbounds nuw (i8, ptr @_glfw, i64 141352), align 8, !tbaa !228
  %15 = call ptr %14() #17
  %16 = load ptr, ptr getelementptr inbounds nuw (i8, ptr @_glfw, i64 141656), align 8, !tbaa !331
  %17 = load ptr, ptr getelementptr inbounds nuw (i8, ptr @_glfw, i64 137840), align 8, !tbaa !93
  %18 = load i64, ptr %8, align 8, !tbaa !140
  %19 = call i32 %16(ptr noundef %17, i64 noundef %18, ptr noundef %15, ptr noundef nonnull %5) #17
  %.not11 = icmp eq i32 %19, 0
  br i1 %.not11, label %28, label %20

20:                                               ; preds = %13
  %21 = load i64, ptr %15, align 8, !tbaa !230
  %22 = or i64 %21, 4
  store i64 %22, ptr %15, align 8, !tbaa !230
  %23 = getelementptr inbounds nuw i8, ptr %15, i64 12
  store i32 0, ptr %23, align 4, !tbaa !237
  %24 = getelementptr inbounds nuw i8, ptr %15, i64 8
  store i32 0, ptr %24, align 8, !tbaa !236
  %25 = load ptr, ptr getelementptr inbounds nuw (i8, ptr @_glfw, i64 141920), align 8, !tbaa !239
  %26 = load ptr, ptr getelementptr inbounds nuw (i8, ptr @_glfw, i64 137840), align 8, !tbaa !93
  %27 = load i64, ptr %8, align 8, !tbaa !140
  call void %25(ptr noundef %26, i64 noundef %27, ptr noundef nonnull %15) #17
  br label %28

28:                                               ; preds = %20, %13
  %29 = load ptr, ptr getelementptr inbounds nuw (i8, ptr @_glfw, i64 141552), align 8, !tbaa !130
  %30 = call i32 %29(ptr noundef %15) #17
  call void @llvm.lifetime.end.p0(i64 8, ptr nonnull %5) #17
  br label %31

31:                                               ; preds = %28, %3
  %32 = load ptr, ptr getelementptr inbounds nuw (i8, ptr @_glfw, i64 141736), align 8, !tbaa !332
  %33 = load ptr, ptr getelementptr inbounds nuw (i8, ptr @_glfw, i64 137840), align 8, !tbaa !93
  %34 = load i64, ptr %8, align 8, !tbaa !140
  %35 = call i32 %32(ptr noundef %33, i64 noundef %34, i32 noundef %1, i32 noundef %2) #17
  %36 = load ptr, ptr getelementptr inbounds nuw (i8, ptr @_glfw, i64 141544), align 8, !tbaa !261
  %37 = load ptr, ptr getelementptr inbounds nuw (i8, ptr @_glfw, i64 137840), align 8, !tbaa !93
  %38 = call i32 %36(ptr noundef %37) #17
  ret void
}